

Microchip Technology PIC LITE Macro Assembler V2.00 build -1524193055 
                                                                                               Wed Apr 01 20:07:46 2020

Microchip Technology Omniscient Code Generator v2.00 (Free mode) build 20180527130849
     1  0000                     
      + 0000                     
     2                           ; Version 2.00
     3                           ; Generated 27/05/2018 GMT
     4                           
     5                           ; 
     6                           ; Copyright © 2018, Microchip Technology Inc. and its subsidiaries ("Microchip")
     7                           ; All rights reserved.
     8                           ; 
     9                           ; This software is developed by Microchip Technology Inc. and its subsidiaries ("Microch
                                 ip").
    10                           ; 
    11                           ; Redistribution and use in source and binary forms, with or without modification, are
    12                           ; permitted provided that the following conditions are met:
    13                           ; 
    14                           ;     1. Redistributions of source code must retain the above copyright notice, this lis
                                 t of
    15                           ;        conditions and the following disclaimer.
    16                           ; 
    17                           ;     2. Redistributions in binary form must reproduce the above copyright notice, this 
                                 list
    18                           ;        of conditions and the following disclaimer in the documentation and/or other
    19                           ;        materials provided with the distribution.
    20                           ; 
    21                           ;     3. Microchip's name may not be used to endorse or promote products derived from th
                                 is
    22                           ;        software without specific prior written permission.
    23                           ; 
    24                           ; THIS SOFTWARE IS PROVIDED BY MICROCHIP "AS IS" AND ANY EXPRESS OR IMPLIED WARRANTIES,

    25                           ; INCLUDING, BUT NOT LIMITED TO, THE IMPLIED WARRANTIES OF MERCHANTABILITY AND FITNESS F
                                 OR
    26                           ; PURPOSE ARE DISCLAIMED.  IN NO EVENT SHALL MICROCHIP BE LIABLE FOR ANY DIRECT, INDIREC
                                 T,
    27                           ; INCIDENTAL, SPECIAL, EXEMPLARY, OR CONSEQUENTIAL DAMAGES (INCLUDING BUT NOT LIMITED TO
                                 
    28                           ; PROCUREMENT OF SUBSTITUTE GOODS OR SERVICES; LOSS OF USE, DATA OR PROFITS; OR BUSINESS
                                 
    29                           ; INTERRUPTION) HOWSOEVER CAUSED AND ON ANY THEORY OF LIABILITY, WHETHER IN CONTRACT, ST
                                 RICT
    30                           ; LIABILITY, OR TORT (INCLUDING NEGLIGENCE OR OTHERWISE) ARISING IN ANY WAY OUT OF THE U
                                 SE OF
    31                           ; THIS SOFTWARE, EVEN IF ADVISED OF THE POSSIBILITY OF SUCH DAMAGE.
    32                           ; 
    33                           
    34                           
    35                           ; 
    36                           ; Code-generator required, PIC16F676 Definitions
    37                           ; 
    38  0004                     fsr0 equ 04h
    39  0004                     indf equ 00h
    40  0000                     indf0 equ 00h
    41  0000                     pc equ 02h
    42  0002                     pcl equ 02h
    43  0002                     pclath equ 0Ah
    44  000A                     status equ 03h
    45  0003                     
     2                           opt pagewidth 120
     3  0000                     byte0	macro	val
     4                           	(getbyte(val,0))
     5                           endm
     6  0000                     byte1	macro	val
     7                           	(getbyte(val,1))
     8                           endm
     9  0000                     byte2	macro	val
    10                           	(getbyte(val,2))
    11                           endm
    12  0000                     byte3	macro	val
    13                           	(getbyte(val,3))
    14                           endm
    15  0000                     byte4	macro	val
    16                           	(getbyte(val,4))
    17                           endm
    18  0000                     byte5	macro	val
    19                           	(getbyte(val,5))
    20                           endm
    21  0000                     byte6	macro	val
    22                           	(getbyte(val,6))
    23                           endm
    24  0000                     byte7	macro	val
    25                           	(getbyte(val,7))
    26                           endm
    27  0000                     getword	macro	val,pos
    28                           	(((val) >> (8 * pos)) and 0xffff)
    29                           endm
    30  0000                     word0	macro	val
    31                           	(getword(val,0))
    32                           endm
    33  0000                     word1	macro	val
    34                           	(getword(val,2))
    35                           endm
    36  0000                     word2	macro	val
    37                           	(getword(val,4))
    38                           endm
    39  0000                     word3	macro	val
    40                           	(getword(val,6))
    41                           endm
    42  0000                     gettword	macro	val,pos
    43                           	(((val) >> (8 * pos)) and 0xffffff)
    44                           endm
    45  0000                     tword0	macro	val
    46                           	(gettword(val,0))
    47                           endm
    48  0000                     tword1	macro	val
    49                           	(gettword(val,3))
    50                           endm
    51  0000                     tword2	macro	val
    52                           	(gettword(val,6))
    53                           endm
    54  0000                     getdword	macro	val,pos
    55                           	(((val) >> (8 * pos)) and 0xffffffff)
    56                           endm
    57  0000                     dword0	macro	val
    58                           	(getdword(val,0))
    59                           endm
    60  0000                     dword1	macro	val
    61                           	(getdword(val,4))
    62                           endm
    63  0000                     clrc	macro
    64                           	bcf	3,0
    65                           	endm
    66  0000                     clrz	macro
    67                           	bcf	3,2
    68                           	endm
    69  0000                     setc	macro
    70                           	bsf	3,0
    71                           	endm
    72  0000                     setz	macro
    73                           	bsf	3,2
    74                           	endm
    75  0000                     skipc	macro
    76                           	btfss	3,0
    77                           	endm
    78  0000                     skipz	macro
    79                           	btfss	3,2
    80                           	endm
    81  0000                     skipnc	macro
    82                           	btfsc	3,0
    83                           	endm
    84  0000                     skipnz	macro
    85                           	btfsc	3,2
    86                           	endm
    87  0000                     # 54 "C:\Program Files (x86)\Microchip\xc8\v2.00\pic\include\pic16f676.h"
    88                           INDF equ 00h ;# 
    89  0000                     # 61 "C:\Program Files (x86)\Microchip\xc8\v2.00\pic\include\pic16f676.h"
    90                           TMR0 equ 01h ;# 
    91  0001                     # 68 "C:\Program Files (x86)\Microchip\xc8\v2.00\pic\include\pic16f676.h"
    92                           PCL equ 02h ;# 
    93  0002                     # 75 "C:\Program Files (x86)\Microchip\xc8\v2.00\pic\include\pic16f676.h"
    94                           STATUS equ 03h ;# 
    95  0003                     # 161 "C:\Program Files (x86)\Microchip\xc8\v2.00\pic\include\pic16f676.h"
    96                           FSR equ 04h ;# 
    97  0004                     # 168 "C:\Program Files (x86)\Microchip\xc8\v2.00\pic\include\pic16f676.h"
    98                           PORTA equ 05h ;# 
    99  0005                     # 218 "C:\Program Files (x86)\Microchip\xc8\v2.00\pic\include\pic16f676.h"
   100                           PORTC equ 07h ;# 
   101  0007                     # 268 "C:\Program Files (x86)\Microchip\xc8\v2.00\pic\include\pic16f676.h"
   102                           PCLATH equ 0Ah ;# 
   103  000A                     # 288 "C:\Program Files (x86)\Microchip\xc8\v2.00\pic\include\pic16f676.h"
   104                           INTCON equ 0Bh ;# 
   105  000B                     # 366 "C:\Program Files (x86)\Microchip\xc8\v2.00\pic\include\pic16f676.h"
   106                           PIR1 equ 0Ch ;# 
   107  000C                     # 414 "C:\Program Files (x86)\Microchip\xc8\v2.00\pic\include\pic16f676.h"
   108                           TMR1 equ 0Eh ;# 
   109  000E                     # 421 "C:\Program Files (x86)\Microchip\xc8\v2.00\pic\include\pic16f676.h"
   110                           TMR1L equ 0Eh ;# 
   111  000E                     # 428 "C:\Program Files (x86)\Microchip\xc8\v2.00\pic\include\pic16f676.h"
   112                           TMR1H equ 0Fh ;# 
   113  000F                     # 435 "C:\Program Files (x86)\Microchip\xc8\v2.00\pic\include\pic16f676.h"
   114                           T1CON equ 010h ;# 
   115  0010                     # 500 "C:\Program Files (x86)\Microchip\xc8\v2.00\pic\include\pic16f676.h"
   116                           CMCON equ 019h ;# 
   117  0019                     # 559 "C:\Program Files (x86)\Microchip\xc8\v2.00\pic\include\pic16f676.h"
   118                           ADRESH equ 01Eh ;# 
   119  001E                     # 566 "C:\Program Files (x86)\Microchip\xc8\v2.00\pic\include\pic16f676.h"
   120                           ADCON0 equ 01Fh ;# 
   121  001F                     # 656 "C:\Program Files (x86)\Microchip\xc8\v2.00\pic\include\pic16f676.h"
   122                           OPTION_REG equ 081h ;# 
   123  0081                     # 733 "C:\Program Files (x86)\Microchip\xc8\v2.00\pic\include\pic16f676.h"
   124                           TRISA equ 085h ;# 
   125  0085                     # 783 "C:\Program Files (x86)\Microchip\xc8\v2.00\pic\include\pic16f676.h"
   126                           TRISC equ 087h ;# 
   127  0087                     # 833 "C:\Program Files (x86)\Microchip\xc8\v2.00\pic\include\pic16f676.h"
   128                           PIE1 equ 08Ch ;# 
   129  008C                     # 881 "C:\Program Files (x86)\Microchip\xc8\v2.00\pic\include\pic16f676.h"
   130                           PCON equ 08Eh ;# 
   131  008E                     # 915 "C:\Program Files (x86)\Microchip\xc8\v2.00\pic\include\pic16f676.h"
   132                           OSCCAL equ 090h ;# 
   133  0090                     # 975 "C:\Program Files (x86)\Microchip\xc8\v2.00\pic\include\pic16f676.h"
   134                           ANSEL equ 091h ;# 
   135  0091                     # 1037 "C:\Program Files (x86)\Microchip\xc8\v2.00\pic\include\pic16f676.h"
   136                           WPUA equ 095h ;# 
   137  0095                     # 1042 "C:\Program Files (x86)\Microchip\xc8\v2.00\pic\include\pic16f676.h"
   138                           WPU equ 095h ;# 
   139  0095                     # 1125 "C:\Program Files (x86)\Microchip\xc8\v2.00\pic\include\pic16f676.h"
   140                           IOCA equ 096h ;# 
   141  0096                     # 1130 "C:\Program Files (x86)\Microchip\xc8\v2.00\pic\include\pic16f676.h"
   142                           IOC equ 096h ;# 
   143  0096                     # 1223 "C:\Program Files (x86)\Microchip\xc8\v2.00\pic\include\pic16f676.h"
   144                           VRCON equ 099h ;# 
   145  0099                     # 1283 "C:\Program Files (x86)\Microchip\xc8\v2.00\pic\include\pic16f676.h"
   146                           EEDAT equ 09Ah ;# 
   147  009A                     # 1288 "C:\Program Files (x86)\Microchip\xc8\v2.00\pic\include\pic16f676.h"
   148                           EEDATA equ 09Ah ;# 
   149  009A                     # 1321 "C:\Program Files (x86)\Microchip\xc8\v2.00\pic\include\pic16f676.h"
   150                           EEADR equ 09Bh ;# 
   151  009B                     # 1328 "C:\Program Files (x86)\Microchip\xc8\v2.00\pic\include\pic16f676.h"
   152                           EECON1 equ 09Ch ;# 
   153  009C                     # 1366 "C:\Program Files (x86)\Microchip\xc8\v2.00\pic\include\pic16f676.h"
   154                           EECON2 equ 09Dh ;# 
   155  009D                     # 1373 "C:\Program Files (x86)\Microchip\xc8\v2.00\pic\include\pic16f676.h"
   156                           ADRESL equ 09Eh ;# 
   157  009E                     # 1380 "C:\Program Files (x86)\Microchip\xc8\v2.00\pic\include\pic16f676.h"
   158                           ADCON1 equ 09Fh ;# 
   159  009F                     # 54 "C:\Program Files (x86)\Microchip\xc8\v2.00\pic\include\pic16f676.h"
   160                           INDF equ 00h ;# 
   161  0000                     # 61 "C:\Program Files (x86)\Microchip\xc8\v2.00\pic\include\pic16f676.h"
   162                           TMR0 equ 01h ;# 
   163  0001                     # 68 "C:\Program Files (x86)\Microchip\xc8\v2.00\pic\include\pic16f676.h"
   164                           PCL equ 02h ;# 
   165  0002                     # 75 "C:\Program Files (x86)\Microchip\xc8\v2.00\pic\include\pic16f676.h"
   166                           STATUS equ 03h ;# 
   167  0003                     # 161 "C:\Program Files (x86)\Microchip\xc8\v2.00\pic\include\pic16f676.h"
   168                           FSR equ 04h ;# 
   169  0004                     # 168 "C:\Program Files (x86)\Microchip\xc8\v2.00\pic\include\pic16f676.h"
   170                           PORTA equ 05h ;# 
   171  0005                     # 218 "C:\Program Files (x86)\Microchip\xc8\v2.00\pic\include\pic16f676.h"
   172                           PORTC equ 07h ;# 
   173  0007                     # 268 "C:\Program Files (x86)\Microchip\xc8\v2.00\pic\include\pic16f676.h"
   174                           PCLATH equ 0Ah ;# 
   175  000A                     # 288 "C:\Program Files (x86)\Microchip\xc8\v2.00\pic\include\pic16f676.h"
   176                           INTCON equ 0Bh ;# 
   177  000B                     # 366 "C:\Program Files (x86)\Microchip\xc8\v2.00\pic\include\pic16f676.h"
   178                           PIR1 equ 0Ch ;# 
   179  000C                     # 414 "C:\Program Files (x86)\Microchip\xc8\v2.00\pic\include\pic16f676.h"
   180                           TMR1 equ 0Eh ;# 
   181  000E                     # 421 "C:\Program Files (x86)\Microchip\xc8\v2.00\pic\include\pic16f676.h"
   182                           TMR1L equ 0Eh ;# 
   183  000E                     # 428 "C:\Program Files (x86)\Microchip\xc8\v2.00\pic\include\pic16f676.h"
   184                           TMR1H equ 0Fh ;# 
   185  000F                     # 435 "C:\Program Files (x86)\Microchip\xc8\v2.00\pic\include\pic16f676.h"
   186                           T1CON equ 010h ;# 
   187  0010                     # 500 "C:\Program Files (x86)\Microchip\xc8\v2.00\pic\include\pic16f676.h"
   188                           CMCON equ 019h ;# 
   189  0019                     # 559 "C:\Program Files (x86)\Microchip\xc8\v2.00\pic\include\pic16f676.h"
   190                           ADRESH equ 01Eh ;# 
   191  001E                     # 566 "C:\Program Files (x86)\Microchip\xc8\v2.00\pic\include\pic16f676.h"
   192                           ADCON0 equ 01Fh ;# 
   193  001F                     # 656 "C:\Program Files (x86)\Microchip\xc8\v2.00\pic\include\pic16f676.h"
   194                           OPTION_REG equ 081h ;# 
   195  0081                     # 733 "C:\Program Files (x86)\Microchip\xc8\v2.00\pic\include\pic16f676.h"
   196                           TRISA equ 085h ;# 
   197  0085                     # 783 "C:\Program Files (x86)\Microchip\xc8\v2.00\pic\include\pic16f676.h"
   198                           TRISC equ 087h ;# 
   199  0087                     # 833 "C:\Program Files (x86)\Microchip\xc8\v2.00\pic\include\pic16f676.h"
   200                           PIE1 equ 08Ch ;# 
   201  008C                     # 881 "C:\Program Files (x86)\Microchip\xc8\v2.00\pic\include\pic16f676.h"
   202                           PCON equ 08Eh ;# 
   203  008E                     # 915 "C:\Program Files (x86)\Microchip\xc8\v2.00\pic\include\pic16f676.h"
   204                           OSCCAL equ 090h ;# 
   205  0090                     # 975 "C:\Program Files (x86)\Microchip\xc8\v2.00\pic\include\pic16f676.h"
   206                           ANSEL equ 091h ;# 
   207  0091                     # 1037 "C:\Program Files (x86)\Microchip\xc8\v2.00\pic\include\pic16f676.h"
   208                           WPUA equ 095h ;# 
   209  0095                     # 1042 "C:\Program Files (x86)\Microchip\xc8\v2.00\pic\include\pic16f676.h"
   210                           WPU equ 095h ;# 
   211  0095                     # 1125 "C:\Program Files (x86)\Microchip\xc8\v2.00\pic\include\pic16f676.h"
   212                           IOCA equ 096h ;# 
   213  0096                     # 1130 "C:\Program Files (x86)\Microchip\xc8\v2.00\pic\include\pic16f676.h"
   214                           IOC equ 096h ;# 
   215  0096                     # 1223 "C:\Program Files (x86)\Microchip\xc8\v2.00\pic\include\pic16f676.h"
   216                           VRCON equ 099h ;# 
   217  0099                     # 1283 "C:\Program Files (x86)\Microchip\xc8\v2.00\pic\include\pic16f676.h"
   218                           EEDAT equ 09Ah ;# 
   219  009A                     # 1288 "C:\Program Files (x86)\Microchip\xc8\v2.00\pic\include\pic16f676.h"
   220                           EEDATA equ 09Ah ;# 
   221  009A                     # 1321 "C:\Program Files (x86)\Microchip\xc8\v2.00\pic\include\pic16f676.h"
   222                           EEADR equ 09Bh ;# 
   223  009B                     # 1328 "C:\Program Files (x86)\Microchip\xc8\v2.00\pic\include\pic16f676.h"
   224                           EECON1 equ 09Ch ;# 
   225  009C                     # 1366 "C:\Program Files (x86)\Microchip\xc8\v2.00\pic\include\pic16f676.h"
   226                           EECON2 equ 09Dh ;# 
   227  009D                     # 1373 "C:\Program Files (x86)\Microchip\xc8\v2.00\pic\include\pic16f676.h"
   228                           ADRESL equ 09Eh ;# 
   229  009E                     # 1380 "C:\Program Files (x86)\Microchip\xc8\v2.00\pic\include\pic16f676.h"
   230                           ADCON1 equ 09Fh ;# 
   231  009F                     	FNROOT	_main
   232                           	FNCALL	intlevel1,_myint
   233                           	global	intlevel1
   234                           	FNROOT	intlevel1
   235                           	global	_wVref
   236                           psect	idataBANK0,class=CODE,space=0,delta=2,noexec
   237                           global __pidataBANK0
   238                           __pidataBANK0:
   239  0123                     	file	"CurrentDriver.c"
   240                           	line	27
   241                           
   242                           ;initializer for _wVref
   243                           	retlw	0Fh
   244  0123  340F               	global	_ADRESH
   245                           _ADRESH	set	0x1E
   246  001E                     	global	_PORTCbits
   247                           _PORTCbits	set	0x7
   248  0007                     	global	_ADCON0bits
   249                           _ADCON0bits	set	0x1F
   250  001F                     	global	_PORTC
   251                           _PORTC	set	0x7
   252  0007                     	global	_INTCONbits
   253                           _INTCONbits	set	0xB
   254  000B                     	global	_PIE1bits
   255                           _PIE1bits	set	0x8C
   256  008C                     	global	_ANSELbits
   257                           _ANSELbits	set	0x91
   258  0091                     	global	_ANSEL
   259                           _ANSEL	set	0x91
   260  0091                     	global	_ADCON1bits
   261                           _ADCON1bits	set	0x9F
   262  009F                     	global	_TRISCbits
   263                           _TRISCbits	set	0x87
   264  0087                     	global	_TRISC
   265                           _TRISC	set	0x87
   266  0087                     ; #config settings
   267                           global __CFG_FOSC$
   268                           __CFG_FOSC$ equ 0x5
   269  0005                     global __CFG_WDTE$
   270                           __CFG_WDTE$ equ 0x0
   271  0000                     global __CFG_PWRTE$
   272                           __CFG_PWRTE$ equ 0x1
   273  0001                     global __CFG_MCLRE$
   274                           __CFG_MCLRE$ equ 0x0
   275  0000                     global __CFG_BOREN$
   276                           __CFG_BOREN$ equ 0x0
   277  0000                     global __CFG_CP$
   278                           __CFG_CP$ equ 0x1
   279  0001                     global __CFG_CPD$
   280                           __CFG_CPD$ equ 0x1
   281  0001                     	file	"C:\Users\dell\AppData\Local\Temp\shc4."
   282                           	line	#
   283                           psect cinit,class=CODE,delta=2
   284                           global start_initialization
   285                           start_initialization:
   286  000C                     
   287                           global __initialization
   288                           __initialization:
   289  000C                     psect	bssBANK0,class=BANK0,space=1,noexec
   290                           global __pbssBANK0
   291                           __pbssBANK0:
   292  002F                     _wVoltageRead:
   293  002F                            ds      1
   294  002F                     
   295                           psect	dataBANK0,class=BANK0,space=1,noexec
   296                           global __pdataBANK0
   297                           __pdataBANK0:
   298  0030                     	file	"CurrentDriver.c"
   299                           	line	27
   300                           _wVref:
   301  0030                            ds      1
   302  0030                     
   303                           	file	"C:\Users\dell\AppData\Local\Temp\shc4."
   304                           	line	#
   305                           ; Initialize objects allocated to BANK0
   306                           	global __pidataBANK0
   307                           psect cinit,class=CODE,delta=2,merge=1
   308                           	fcall	__pidataBANK0+0		;fetch initializer
   309  000C  2123               	movwf	__pdataBANK0+0&07fh		
   310  000D  00B0               	line	#
   311                           ; Clear objects allocated to BANK0
   312                           psect cinit,class=CODE,delta=2,merge=1
   313                           	clrf	((__pbssBANK0)+0)&07Fh
   314  000E  01AF               psect cinit,class=CODE,delta=2,merge=1
   315                           global end_of_initialization,__end_of__initialization
   316                           
   317                           ;End of C runtime variable initialization code
   318                           
   319                           end_of_initialization:
   320  000F                     __end_of__initialization:
   321  000F                     clrf status
   322  000F  0183               ljmp _main	;jump to C main() function
   323  0010  2811               psect	cstackBANK0,class=BANK0,space=1,noexec
   324                           global __pcstackBANK0
   325                           __pcstackBANK0:
   326  0020                     ?_main:	; 1 bytes @ 0x0
   327  0020                     ?_myint:	; 1 bytes @ 0x0
   328  0020                     ??_myint:	; 1 bytes @ 0x0
   329  0020                     	ds	2
   330  0020                     ??_main:	; 1 bytes @ 0x2
   331  0022                     	ds	2
   332  0022                     	global	main@i
   333                           main@i:	; 2 bytes @ 0x4
   334  0024                     	ds	2
   335  0024                     	global	main@i_257
   336                           main@i_257:	; 2 bytes @ 0x6
   337  0026                     	ds	2
   338  0026                     	global	main@i_258
   339                           main@i_258:	; 2 bytes @ 0x8
   340  0028                     	ds	2
   341  0028                     	global	main@ErrorCode
   342                           main@ErrorCode:	; 1 bytes @ 0xA
   343  002A                     	ds	1
   344  002A                     	global	main@i_250
   345                           main@i_250:	; 2 bytes @ 0xB
   346  002B                     	ds	2
   347  002B                     	global	main@NB_Wait
   348                           main@NB_Wait:	; 2 bytes @ 0xD
   349  002D                     	ds	2
   350  002D                     ;!
   351                           ;!Data Sizes:
   352                           ;!    Strings     0
   353                           ;!    Constant    0
   354                           ;!    Data        1
   355                           ;!    BSS         1
   356                           ;!    Persistent  0
   357                           ;!    Stack       0
   358                           ;!
   359                           ;!Auto Spaces:
   360                           ;!    Space          Size  Autos    Used
   361                           ;!    COMMON            0      0       0
   362                           ;!    BANK0            62     15      17
   363                           
   364                           ;!
   365                           ;!Pointer List with Targets:
   366                           ;!
   367                           ;!    None.
   368                           
   369                           
   370                           ;!
   371                           ;!Critical Paths under _main in COMMON
   372                           ;!
   373                           ;!    None.
   374                           ;!
   375                           ;!Critical Paths under _myint in COMMON
   376                           ;!
   377                           ;!    None.
   378                           ;!
   379                           ;!Critical Paths under _main in BANK0
   380                           ;!
   381                           ;!    None.
   382                           ;!
   383                           ;!Critical Paths under _myint in BANK0
   384                           ;!
   385                           ;!    None.
   386                           
   387 ;;
   388 ;;Main: autosize = 0, tempsize = 2, incstack = 0, save=0
   389 ;;
   390                           
   391                           ;!
   392                           ;!Call Graph Tables:
   393                           ;!
   394                           ;! ---------------------------------------------------------------------------------
   395                           ;! (Depth) Function   	        Calls       Base Space   Used Autos Params    Refs
   396                           ;! ---------------------------------------------------------------------------------
   397                           ;! (0) _main                                                13    13      0     325
   398                           ;!                                              2 BANK0     13    13      0
   399                           ;! ---------------------------------------------------------------------------------
   400                           ;! Estimated maximum stack depth 0
   401                           ;! ---------------------------------------------------------------------------------
   402                           ;! (Depth) Function   	        Calls       Base Space   Used Autos Params    Refs
   403                           ;! ---------------------------------------------------------------------------------
   404                           ;! (1) _myint                                                2     2      0       0
   405                           ;!                                              0 BANK0      2     2      0
   406                           ;! ---------------------------------------------------------------------------------
   407                           ;! Estimated maximum stack depth 1
   408                           ;! ---------------------------------------------------------------------------------
   409                           ;!
   410                           ;! Call Graph Graphs:
   411                           ;!
   412                           ;! _main (ROOT)
   413                           ;!
   414                           ;! _myint (ROOT)
   415                           ;!
   416                           
   417                           ;! Address spaces:
   418                           
   419                           ;!Name               Size   Autos  Total    Cost      Usage
   420                           ;!SFR1                 0      0       0       2        0.0%
   421                           ;!BITSFR1              0      0       0       2        0.0%
   422                           ;!BANK0               3E      F      11       4       27.4%
   423                           ;!BITBANK0            3E      0       0       3        0.0%
   424                           ;!SFR0                 0      0       0       1        0.0%
   425                           ;!BITSFR0              0      0       0       1        0.0%
   426                           ;!COMMON               0      0       0       1        0.0%
   427                           ;!BITCOMMON            0      0       0       0        0.0%
   428                           ;!CODE                 0      0       0       0        0.0%
   429                           ;!DATA                 0      0      11       6        0.0%
   430                           ;!ABS                  0      0      11       5        0.0%
   431                           ;!NULL                 0      0       0       0        0.0%
   432                           ;!STACK                0      0       0       2        0.0%
   433                           ;!EEDATA              80      0       0       0        0.0%
   434                           
   435                           	global	_main
   436                           
   437 ;; *************** function _main *****************
   438 ;; Defined at:
   439 ;;		line 29 in file "CurrentDriver.c"
   440 ;; Parameters:    Size  Location     Type
   441 ;;		None
   442 ;; Auto vars:     Size  Location     Type
   443 ;;  i               2    8[BANK0 ] unsigned int 
   444 ;;  i               2    6[BANK0 ] unsigned int 
   445 ;;  i               2    4[BANK0 ] unsigned int 
   446 ;;  NB_Wait         2   13[BANK0 ] int 
   447 ;;  i               2   11[BANK0 ] int 
   448 ;;  ErrorCode       1   10[BANK0 ] unsigned char 
   449 ;; Return value:  Size  Location     Type
   450 ;;                  1    wreg      void 
   451 ;; Registers used:
   452 ;;		wreg, fsr0l, fsr0h, status,2, status,0
   453 ;; Tracked objects:
   454 ;;		On entry : B00/0
   455 ;;		On exit  : 0/0
   456 ;;		Unchanged: 0/0
   457 ;; Data sizes:     COMMON   BANK0
   458 ;;      Params:         0       0
   459 ;;      Locals:         0      11
   460 ;;      Temps:          0       2
   461 ;;      Totals:         0      13
   462 ;;Total ram usage:       13 bytes
   463 ;; Hardware stack levels required when called:    1
   464 ;; This function calls:
   465 ;;		Nothing
   466 ;; This function is called by:
   467 ;;		Startup code after reset
   468 ;; This function uses a non-reentrant model
   469 ;;
   470                           psect	maintext,global,class=CODE,delta=2,split=1,group=0
   471                           	file	"CurrentDriver.c"
   472                           	line	29
   473                           global __pmaintext
   474                           __pmaintext:	;psect for function _main
   475  0011                     psect	maintext
   476                           	file	"CurrentDriver.c"
   477                           	line	29
   478                           	global	__size_of_main
   479                           	__size_of_main	equ	__end_of_main-_main
   480  010B                     	
   481                           _main:	
   482  0011                     ;incstack = 0
   483                           	opt	stack 7
   484                           ; Regs used in _main: [wreg-fsr0h+status,2+status,0]
   485                           	line	31
   486                           	
   487                           l763:	
   488  0011                     ;CurrentDriver.c: 31:     for(uint16_t i=0; i< 65500;i++)
   489                           	bcf	status, 5	;RP0=0, select bank0
   490  0011  1283               	clrf	(main@ErrorCode)
   491  0012  01AA               	line	33
   492                           ;CurrentDriver.c: 33:        __asm__ __volatile__ ("nop");
   493                           	clrf	(main@NB_Wait)
   494  0013  01AD               	clrf	(main@NB_Wait+1)
   495  0014  01AE               	line	34
   496                           	
   497                           l765:	
   498  0015                     ;CurrentDriver.c: 34:     }
   499                           	bcf	(11),7	;volatile
   500  0015  138B               	line	38
   501                           ;CurrentDriver.c: 38:  while(1)
   502                           	clrf	(7)	;volatile
   503  0016  0187               	line	39
   504                           	
   505                           l767:	
   506  0017                     ;CurrentDriver.c: 39:  {
   507                           	movlw	low(0FFh)
   508  0017  30FF               	bsf	status, 5	;RP0=1, select bank1
   509  0018  1683               	movwf	(135)^080h	;volatile
   510  0019  0087               	line	40
   511                           	
   512                           l769:	
   513  001A                     ;CurrentDriver.c: 40:     PORTCbits.RC5 = 1;
   514                           	bcf	(135)^080h,5	;volatile
   515  001A  1287               	line	41
   516                           	
   517                           l771:	
   518  001B                     ;CurrentDriver.c: 41: 
   519                           	bcf	(135)^080h,4	;volatile
   520  001B  1207               	line	42
   521                           	
   522                           l773:	
   523  001C                     ;CurrentDriver.c: 42:     for(i=0; i< NB_Wait;i++)
   524                           	bcf	status, 5	;RP0=0, select bank0
   525  001C  1283               	bcf	(31),2	;volatile
   526  001D  111F               	line	43
   527                           	
   528                           l775:	
   529  001E                     ;CurrentDriver.c: 43:     {
   530                           	bcf	(31),3	;volatile
   531  001E  119F               	line	44
   532                           	
   533                           l777:	
   534  001F                     ;CurrentDriver.c: 44:        __asm__ __volatile__ ("nop");
   535                           	bsf	(31),4	;volatile
   536  001F  161F               	line	45
   537                           	
   538                           l779:	
   539  0020                     ;CurrentDriver.c: 45:     }
   540                           	bcf	(31),7	;volatile
   541  0020  139F               	line	46
   542                           	
   543                           l781:	
   544  0021                     ;CurrentDriver.c: 46: 
   545                           	bcf	(31),6	;volatile
   546  0021  131F               	line	47
   547                           	
   548                           l783:	
   549  0022                     ;CurrentDriver.c: 47:     ADCON0bits.GO_nDONE = 1;
   550                           	bsf	status, 5	;RP0=1, select bank1
   551  0022  1683               	movf	(159)^080h,w	;volatile
   552  0023  081F               	andlw	not (((1<<3)-1)<<4)
   553  0024  398F               	iorlw	(01h & ((1<<3)-1))<<4
   554  0025  3810               	movwf	(159)^080h	;volatile
   555  0026  009F               	line	48
   556                           	
   557                           l785:	
   558  0027                     ;CurrentDriver.c: 48:     __asm__ __volatile__ ("nop");
   559                           	bcf	status, 5	;RP0=0, select bank0
   560  0027  1283               	bsf	(31),0	;volatile
   561  0028  141F               	line	50
   562                           	
   563                           l787:	
   564  0029                     ;CurrentDriver.c: 50: 
   565                           	bsf	status, 5	;RP0=1, select bank1
   566  0029  1683               	clrf	(145)^080h	;volatile
   567  002A  0191               	line	51
   568                           	
   569                           l789:	
   570  002B                     ;CurrentDriver.c: 51:     for(i=0; i< NB_Wait;i++)
   571                           	bsf	(145)^080h,4	;volatile
   572  002B  1611               	line	53
   573                           	
   574                           l791:	
   575  002C                     ;CurrentDriver.c: 53:        __asm__ __volatile__ ("nop");
   576                           	bcf	(140)^080h,6	;volatile
   577  002C  130C               	line	54
   578                           	
   579                           l793:	
   580  002D                     ;CurrentDriver.c: 54:     }
   581                           	bcf	(11),6	;volatile
   582  002D  130B               	line	55
   583                           	
   584                           l795:	
   585  002E                     ;CurrentDriver.c: 55:     while(ADCON0bits.GO_nDONE == 1)
   586                           	bcf	(11),7	;volatile
   587  002E  138B               	line	57
   588                           	
   589                           l797:	
   590  002F                     ;CurrentDriver.c: 57:     if(ADRESH > wVref)
   591                           	bcf	status, 5	;RP0=0, select bank0
   592  002F  1283               	clrf	(main@i)
   593  0030  01A4               	clrf	(main@i+1)
   594  0031  01A5               	
   595                           l799:	
   596  0032                     	movlw	0FFh
   597  0032  30FF               	subwf	(main@i+1),w
   598  0033  0225               	movlw	0DCh
   599  0034  30DC               	skipnz
   600  0035  1903               	subwf	(main@i),w
   601  0036  0224               	skipc
   602  0037  1C03               	goto	u141
   603  0038  283A               	goto	u140
   604  0039  283B               u141:
   605  003A                     	goto	l31
   606  003A  283D               u140:
   607  003B                     	goto	l805
   608  003B  284F               	
   609                           l801:	
   610  003C                     	goto	l805
   611  003C  284F               	
   612                           l31:	
   613  003D                     	line	59
   614                           # 59 "CurrentDriver.c"
   615                           nop ;# 
   616  003D  0000               psect	maintext
   617                           	line	60
   618                           	
   619                           l803:	
   620  003E                     ;CurrentDriver.c: 60:         if(NB_Wait == -1)
   621                           	movlw	01h
   622  003E  3001               	bcf	status, 5	;RP0=0, select bank0
   623  003F  1283               	addwf	(main@i),f
   624  0040  07A4               	skipnc
   625  0041  1803               	incf	(main@i+1),f
   626  0042  0AA5               	movlw	0
   627  0043  3000               	addwf	(main@i+1),f
   628  0044  07A5               	movlw	0FFh
   629  0045  30FF               	subwf	(main@i+1),w
   630  0046  0225               	movlw	0DCh
   631  0047  30DC               	skipnz
   632  0048  1903               	subwf	(main@i),w
   633  0049  0224               	skipc
   634  004A  1C03               	goto	u151
   635  004B  284D               	goto	u150
   636  004C  284E               u151:
   637  004D                     	goto	l31
   638  004D  283D               u150:
   639  004E                     	goto	l805
   640  004E  284F               	
   641                           l32:	
   642  004F                     	line	62
   643                           	
   644                           l805:	
   645  004F                     ;CurrentDriver.c: 62:             ErrorCode= 1;
   646                           	clrf	(main@i_250)
   647  004F  01AB               	clrf	(main@i_250+1)
   648  0050  01AC               	goto	l807
   649  0051  2852               	line	64
   650                           ;CurrentDriver.c: 64:         }
   651                           	
   652                           l33:	
   653  0052                     	line	66
   654                           	
   655                           l807:	
   656  0052                     ;CurrentDriver.c: 65:     };CurrentDriver.c: 66:     else
   657                           	bsf	(7),5	;volatile
   658  0052  1687               	line	68
   659                           ;CurrentDriver.c: 68:         NB_Wait++;
   660                           	clrf	(main@i_250)
   661  0053  01AB               	clrf	(main@i_250+1)
   662  0054  01AC               	goto	l34
   663  0055  285E               	
   664                           l35:	
   665  0056                     	line	70
   666                           # 70 "CurrentDriver.c"
   667                           nop ;# 
   668  0056  0000               psect	maintext
   669                           	line	71
   670                           	
   671                           l809:	
   672  0057                     ;CurrentDriver.c: 71:            ErrorCode=2;
   673                           	movlw	01h
   674  0057  3001               	bcf	status, 5	;RP0=0, select bank0
   675  0058  1283               	addwf	(main@i_250),f
   676  0059  07AB               	skipnc
   677  005A  1803               	incf	(main@i_250+1),f
   678  005B  0AAC               	movlw	0
   679  005C  3000               	addwf	(main@i_250+1),f
   680  005D  07AC               	
   681                           l34:	
   682  005E                     	movf	(main@i_250+1),w
   683  005E  082C               	xorlw	80h
   684  005F  3A80               	movwf	(??_main+0)+0
   685  0060  00A2               	movf	(main@NB_Wait+1),w
   686  0061  082E               	xorlw	80h
   687  0062  3A80               	subwf	(??_main+0)+0,w
   688  0063  0222               	skipz
   689  0064  1D03               	goto	u165
   690  0065  2868               	movf	(main@NB_Wait),w
   691  0066  082D               	subwf	(main@i_250),w
   692  0067  022B               u165:
   693  0068                     
   694                           	skipc
   695  0068  1C03               	goto	u161
   696  0069  286B               	goto	u160
   697  006A  286C               u161:
   698  006B                     	goto	l35
   699  006B  2856               u160:
   700  006C                     	
   701                           l36:	
   702  006C                     	line	73
   703                           ;CurrentDriver.c: 73:         }
   704                           	bcf	status, 5	;RP0=0, select bank0
   705  006C  1283               	bsf	(31),1	;volatile
   706  006D  149F               	line	74
   707                           # 74 "CurrentDriver.c"
   708                           nop ;# 
   709  006E  0000               psect	maintext
   710                           	line	75
   711                           ;CurrentDriver.c: 75:  }
   712                           	bcf	status, 5	;RP0=0, select bank0
   713  006F  1283               	bcf	(7),5	;volatile
   714  0070  1287               	line	77
   715                           	
   716                           l811:	
   717  0071                     ;CurrentDriver.c: 77:  PORTCbits.RC5 = 0;
   718                           	clrf	(main@i_250)
   719  0071  01AB               	clrf	(main@i_250+1)
   720  0072  01AC               	goto	l37
   721  0073  287C               	
   722                           l38:	
   723  0074                     	line	79
   724                           # 79 "CurrentDriver.c"
   725                           nop ;# 
   726  0074  0000               psect	maintext
   727                           	line	80
   728                           	
   729                           l813:	
   730  0075                     ;CurrentDriver.c: 80: {
   731                           	movlw	01h
   732  0075  3001               	bcf	status, 5	;RP0=0, select bank0
   733  0076  1283               	addwf	(main@i_250),f
   734  0077  07AB               	skipnc
   735  0078  1803               	incf	(main@i_250+1),f
   736  0079  0AAC               	movlw	0
   737  007A  3000               	addwf	(main@i_250+1),f
   738  007B  07AC               	
   739                           l37:	
   740  007C                     	movf	(main@i_250+1),w
   741  007C  082C               	xorlw	80h
   742  007D  3A80               	movwf	(??_main+0)+0
   743  007E  00A2               	movf	(main@NB_Wait+1),w
   744  007F  082E               	xorlw	80h
   745  0080  3A80               	subwf	(??_main+0)+0,w
   746  0081  0222               	skipz
   747  0082  1D03               	goto	u175
   748  0083  2886               	movf	(main@NB_Wait),w
   749  0084  082D               	subwf	(main@i_250),w
   750  0085  022B               u175:
   751  0086                     
   752                           	skipc
   753  0086  1C03               	goto	u171
   754  0087  2889               	goto	u170
   755  0088  288A               u171:
   756  0089                     	goto	l38
   757  0089  2874               u170:
   758  008A                     	goto	l40
   759  008A  288C               	
   760                           l39:	
   761  008B                     	line	81
   762                           ;CurrentDriver.c: 81:     switch(ErrorCode)
   763                           	goto	l40
   764  008B  288C               	
   765                           l41:	
   766  008C                     	line	82
   767                           ;CurrentDriver.c: 82:     {
   768                           	
   769                           l40:	
   770  008C                     	line	81
   771                           ;CurrentDriver.c: 81:     switch(ErrorCode)
   772                           	bcf	status, 5	;RP0=0, select bank0
   773  008C  1283               	btfsc	(31),1	;volatile
   774  008D  189F               	goto	u181
   775  008E  2890               	goto	u180
   776  008F  2891               u181:
   777  0090                     	goto	l40
   778  0090  288C               u180:
   779  0091                     	goto	l815
   780  0091  2892               	
   781                           l42:	
   782  0092                     	line	83
   783                           	
   784                           l815:	
   785  0092                     ;CurrentDriver.c: 83:         case 1:
   786                           	movf	(30),w	;volatile
   787  0092  081E               	subwf	(_wVref),w
   788  0093  0230               	skipnc
   789  0094  1803               	goto	u191
   790  0095  2897               	goto	u190
   791  0096  2898               u191:
   792  0097                     	goto	l823
   793  0097  28AA               u190:
   794  0098                     	line	85
   795                           	
   796                           l817:	
   797  0098                     ;CurrentDriver.c: 84:             for(uint16_t i=0; i< 65000;i++);CurrentDriver.c: 85:  
                                            {
   798                           	movlw	0FFh
   799  0098  30FF               	addwf	(main@NB_Wait),f
   800  0099  07AD               	skipnc
   801  009A  1803               	incf	(main@NB_Wait+1),f
   802  009B  0AAE               	movlw	0FFh
   803  009C  30FF               	addwf	(main@NB_Wait+1),f
   804  009D  07AE               	line	86
   805                           	
   806                           l819:	
   807  009E                     ;CurrentDriver.c: 86:                __asm__ __volatile__ ("nop");
   808                           		incf	((main@NB_Wait)),w
   809  009E  0A2D               	skipz
   810  009F  1D03               	goto	u201
   811  00A0  28A5               	incf	((main@NB_Wait+1)),w
   812  00A1  0A2E               	btfss	status,2
   813  00A2  1D03               	goto	u201
   814  00A3  28A5               	goto	u200
   815  00A4  28A6               u201:
   816  00A5                     	goto	l807
   817  00A5  2852               u200:
   818  00A6                     	line	88
   819                           	
   820                           l821:	
   821  00A6                     ;CurrentDriver.c: 87:             };CurrentDriver.c: 88:             PORTCbits.RC4 = 1;

   822                           	clrf	(main@ErrorCode)
   823  00A6  01AA               	incf	(main@ErrorCode),f
   824  00A7  0AAA               	line	89
   825                           ;CurrentDriver.c: 89:             for(uint16_t i=0; i< 65000;i++)
   826                           	goto	l45
   827  00A8  28BE               	line	90
   828                           ;CurrentDriver.c: 90:             {
   829                           	
   830                           l44:	
   831  00A9                     	line	91
   832                           ;CurrentDriver.c: 91:                __asm__ __volatile__ ("nop");
   833                           	goto	l807
   834  00A9  2852               	line	92
   835                           ;CurrentDriver.c: 92:             }
   836                           	
   837                           l43:	
   838  00AA                     	line	94
   839                           	
   840                           l823:	
   841  00AA                     ;CurrentDriver.c: 93:             PORTCbits.RC4 = 0;;CurrentDriver.c: 94:             br
                                 eak;
   842                           	movlw	01h
   843  00AA  3001               	addwf	(main@NB_Wait),f
   844  00AB  07AD               	skipnc
   845  00AC  1803               	incf	(main@NB_Wait+1),f
   846  00AD  0AAE               	movlw	0
   847  00AE  3000               	addwf	(main@NB_Wait+1),f
   848  00AF  07AE               	line	95
   849                           	
   850                           l825:	
   851  00B0                     ;CurrentDriver.c: 95:         case 2:
   852                           		incf	((main@NB_Wait)),w
   853  00B0  0A2D               iorwf	((main@NB_Wait+1)),w
   854  00B1  042E               	btfss	status,2
   855  00B2  1D03               	goto	u211
   856  00B3  28B5               	goto	u210
   857  00B4  28B6               u211:
   858  00B5                     	goto	l807
   859  00B5  2852               u210:
   860  00B6                     	line	97
   861                           	
   862                           l827:	
   863  00B6                     ;CurrentDriver.c: 96:             PORTCbits.RC4 = 1;;CurrentDriver.c: 97:             br
                                 eak;
   864                           	movlw	low(02h)
   865  00B6  3002               	movwf	(??_main+0)+0
   866  00B7  00A2               	movf	(??_main+0)+0,w
   867  00B8  0822               	movwf	(main@ErrorCode)
   868  00B9  00AA               	line	98
   869                           ;CurrentDriver.c: 98:         default:
   870                           	goto	l45
   871  00BA  28BE               	line	99
   872                           ;CurrentDriver.c: 99:             break;
   873                           	
   874                           l47:	
   875  00BB                     	goto	l807
   876  00BB  2852               	line	100
   877                           ;CurrentDriver.c: 100: 
   878                           	
   879                           l46:	
   880  00BC                     	goto	l807
   881  00BC  2852               	line	101
   882                           ;CurrentDriver.c: 101:     }
   883                           	
   884                           l48:	
   885  00BD                     	goto	l807
   886  00BD  2852               	
   887                           l45:	
   888  00BE                     	line	103
   889                           ;CurrentDriver.c: 103: }
   890                           	bcf	(7),5	;volatile
   891  00BE  1287               	line	105
   892                           ;CurrentDriver.c: 105:     return;
   893                           	goto	l849
   894  00BF  2915               	
   895                           l50:	
   896  00C0                     	line	107
   897                           ;CurrentDriver.c: 106: };CurrentDriver.c: 107: 
   898                           	goto	l847
   899  00C0  2904               	line	109
   900                           ;CurrentDriver.c: 108: void __attribute__((picinterrupt(""))) myint(void);CurrentDriver.
                                 c: 109: {
   901                           	
   902                           l52:	
   903  00C1                     	line	110
   904                           	
   905                           l829:	
   906  00C1                     ;CurrentDriver.c: 110: 
   907                           	clrf	(main@i_257)
   908  00C1  01A6               	clrf	(main@i_257+1)
   909  00C2  01A7               	
   910                           l831:	
   911  00C3                     	movlw	0FDh
   912  00C3  30FD               	subwf	(main@i_257+1),w
   913  00C4  0227               	movlw	0E8h
   914  00C5  30E8               	skipnz
   915  00C6  1903               	subwf	(main@i_257),w
   916  00C7  0226               	skipc
   917  00C8  1C03               	goto	u221
   918  00C9  28CB               	goto	u220
   919  00CA  28CC               u221:
   920  00CB                     	goto	l53
   921  00CB  28CE               u220:
   922  00CC                     	goto	l54
   923  00CC  28DF               	
   924                           l833:	
   925  00CD                     	goto	l54
   926  00CD  28DF               	
   927                           l53:	
   928  00CE                     	line	112
   929                           # 112 "CurrentDriver.c"
   930                           nop ;# 
   931  00CE  0000               psect	maintext
   932                           	line	113
   933                           	
   934                           l835:	
   935  00CF                     	movlw	01h
   936  00CF  3001               	bcf	status, 5	;RP0=0, select bank0
   937  00D0  1283               	addwf	(main@i_257),f
   938  00D1  07A6               	skipnc
   939  00D2  1803               	incf	(main@i_257+1),f
   940  00D3  0AA7               	movlw	0
   941  00D4  3000               	addwf	(main@i_257+1),f
   942  00D5  07A7               	movlw	0FDh
   943  00D6  30FD               	subwf	(main@i_257+1),w
   944  00D7  0227               	movlw	0E8h
   945  00D8  30E8               	skipnz
   946  00D9  1903               	subwf	(main@i_257),w
   947  00DA  0226               	skipc
   948  00DB  1C03               	goto	u231
   949  00DC  28DE               	goto	u230
   950  00DD  28DF               u231:
   951  00DE                     	goto	l53
   952  00DE  28CE               u230:
   953  00DF                     	
   954                           l54:	
   955  00DF                     	line	114
   956                           	bsf	(7),4	;volatile
   957  00DF  1607               	line	115
   958                           	
   959                           l837:	
   960  00E0                     	clrf	(main@i_258)
   961  00E0  01A8               	clrf	(main@i_258+1)
   962  00E1  01A9               	
   963                           l839:	
   964  00E2                     	movlw	0FDh
   965  00E2  30FD               	subwf	(main@i_258+1),w
   966  00E3  0229               	movlw	0E8h
   967  00E4  30E8               	skipnz
   968  00E5  1903               	subwf	(main@i_258),w
   969  00E6  0228               	skipc
   970  00E7  1C03               	goto	u241
   971  00E8  28EA               	goto	u240
   972  00E9  28EB               u241:
   973  00EA                     	goto	l55
   974  00EA  28ED               u240:
   975  00EB                     	goto	l56
   976  00EB  28FE               	
   977                           l841:	
   978  00EC                     	goto	l56
   979  00EC  28FE               	
   980                           l55:	
   981  00ED                     	line	117
   982                           # 117 "CurrentDriver.c"
   983                           nop ;# 
   984  00ED  0000               psect	maintext
   985                           	line	118
   986                           	
   987                           l843:	
   988  00EE                     	movlw	01h
   989  00EE  3001               	bcf	status, 5	;RP0=0, select bank0
   990  00EF  1283               	addwf	(main@i_258),f
   991  00F0  07A8               	skipnc
   992  00F1  1803               	incf	(main@i_258+1),f
   993  00F2  0AA9               	movlw	0
   994  00F3  3000               	addwf	(main@i_258+1),f
   995  00F4  07A9               	movlw	0FDh
   996  00F5  30FD               	subwf	(main@i_258+1),w
   997  00F6  0229               	movlw	0E8h
   998  00F7  30E8               	skipnz
   999  00F8  1903               	subwf	(main@i_258),w
  1000  00F9  0228               	skipc
  1001  00FA  1C03               	goto	u251
  1002  00FB  28FD               	goto	u250
  1003  00FC  28FE               u251:
  1004  00FD                     	goto	l55
  1005  00FD  28ED               u250:
  1006  00FE                     	
  1007                           l56:	
  1008  00FE                     	line	119
  1009                           	bcf	(7),4	;volatile
  1010  00FE  1207               	line	120
  1011                           	goto	l849
  1012  00FF  2915               	line	121
  1013                           	
  1014                           l58:	
  1015  0100                     	line	122
  1016                           	bsf	(7),4	;volatile
  1017  0100  1607               	line	123
  1018                           	goto	l849
  1019  0101  2915               	line	124
  1020                           	
  1021                           l59:	
  1022  0102                     	line	125
  1023                           	goto	l849
  1024  0102  2915               	line	127
  1025                           	
  1026                           l845:	
  1027  0103                     	goto	l849
  1028  0103  2915               	
  1029                           l51:	
  1030  0104                     	
  1031                           l847:	
  1032  0104                     	movf	(main@ErrorCode),w
  1033  0104  082A               	movwf	(??_main+0)+0
  1034  0105  00A2               	clrf	(??_main+0)+0+1
  1035  0106  01A3               	; Switch on 2 bytes has been partitioned into a top level switch of size 1, and 1 sub-s
                                 witches
  1036                           ; Switch size 1, requested type "space"
  1037                           ; Number of cases is 1, Range of values is 0 to 0
  1038                           ; switch strategies available:
  1039                           ; Name         Instructions Cycles
  1040                           ; simple_byte            4     3 (average)
  1041                           ; direct_byte            7     6 (fixed)
  1042                           ; jumptable            260     6 (fixed)
  1043                           ;	Chosen strategy is simple_byte
  1044                           
  1045                           	movf 1+(??_main+0)+0,w
  1046  0107  0823               	opt asmopt_push
  1047                           	opt asmopt_off
  1048                           	xorlw	0^0	; case 0
  1049  0108  3A00               	skipnz
  1050  0109  1903               	goto	l887
  1051  010A  290C               	goto	l849
  1052  010B  2915               	opt asmopt_pop
  1053                           	
  1054                           l887:	
  1055  010C                     ; Switch size 1, requested type "space"
  1056                           ; Number of cases is 2, Range of values is 1 to 2
  1057                           ; switch strategies available:
  1058                           ; Name         Instructions Cycles
  1059                           ; simple_byte            7     4 (average)
  1060                           ; direct_byte           11     9 (fixed)
  1061                           ; jumptable            263     9 (fixed)
  1062                           ;	Chosen strategy is simple_byte
  1063                           
  1064                           	movf 0+(??_main+0)+0,w
  1065  010C  0822               	opt asmopt_push
  1066                           	opt asmopt_off
  1067                           	xorlw	1^0	; case 1
  1068  010D  3A01               	skipnz
  1069  010E  1903               	goto	l829
  1070  010F  28C1               	xorlw	2^1	; case 2
  1071  0110  3A03               	skipnz
  1072  0111  1903               	goto	l58
  1073  0112  2900               	goto	l849
  1074  0113  2915               	opt asmopt_pop
  1075                           
  1076                           	
  1077                           l57:	
  1078  0114                     	goto	l849
  1079  0114  2915               	line	129
  1080                           	
  1081                           l49:	
  1082  0115                     	line	105
  1083                           	
  1084                           l849:	
  1085  0115                     ;CurrentDriver.c: 105:     return;
  1086                           	movf	((main@ErrorCode)),w
  1087  0115  082A               	btfss	status,2
  1088  0116  1D03               	goto	u261
  1089  0117  2919               	goto	u260
  1090  0118  291A               u261:
  1091  0119                     	goto	l847
  1092  0119  2904               u260:
  1093  011A                     	goto	l61
  1094  011A  291B               	
  1095                           l60:	
  1096  011B                     	line	132
  1097                           	
  1098                           l61:	
  1099  011B                     	global	start
  1100                           	ljmp	start
  1101  011B  280B               	opt stack 0
  1102                           GLOBAL	__end_of_main
  1103                           	__end_of_main:
  1104  011C                     	signat	_main,89
  1105                           	global	_myint
  1106                           
  1107 ;; *************** function _myint *****************
  1108 ;; Defined at:
  1109 ;;		line 134 in file "CurrentDriver.c"
  1110 ;; Parameters:    Size  Location     Type
  1111 ;;		None
  1112 ;; Auto vars:     Size  Location     Type
  1113 ;;		None
  1114 ;; Return value:  Size  Location     Type
  1115 ;;                  1    wreg      void 
  1116 ;; Registers used:
  1117 ;;		None
  1118 ;; Tracked objects:
  1119 ;;		On entry : 0/0
  1120 ;;		On exit  : 0/0
  1121 ;;		Unchanged: 0/0
  1122 ;; Data sizes:     COMMON   BANK0
  1123 ;;      Params:         0       0
  1124 ;;      Locals:         0       0
  1125 ;;      Temps:          0       2
  1126 ;;      Totals:         0       2
  1127 ;;Total ram usage:        2 bytes
  1128 ;; Hardware stack levels used:    1
  1129 ;; This function calls:
  1130 ;;		Nothing
  1131 ;; This function is called by:
  1132 ;;		Interrupt level 1
  1133 ;; This function uses a non-reentrant model
  1134 ;;
  1135                           psect	text1,local,class=CODE,delta=2,merge=1,group=0
  1136                           	line	134
  1137                           global __ptext1
  1138                           __ptext1:	;psect for function _myint
  1139  011C                     psect	text1
  1140                           	file	"CurrentDriver.c"
  1141                           	line	134
  1142                           	global	__size_of_myint
  1143                           	__size_of_myint	equ	__end_of_myint-_myint
  1144  0007                     	
  1145                           _myint:	
  1146  011C                     ;incstack = 0
  1147                           	opt	stack 7
  1148                           ; Regs used in _myint: []
  1149                           psect	intentry,class=CODE,delta=2
  1150                           global __pintentry
  1151                           __pintentry:
  1152  0004                     global interrupt_function
  1153                           interrupt_function:
  1154  0004                     	global saved_w
  1155                           	saved_w	set	btemp+0
  1156  005E                     	movwf	saved_w
  1157  0004  00DE               	swapf	status,w
  1158  0005  0E03               	bcf	status, 5	;RP0=0, select bank0
  1159  0006  1283               	movwf	(??_myint+0)
  1160  0007  00A0               	movf	pclath,w
  1161  0008  080A               	movwf	(??_myint+1)
  1162  0009  00A1               	ljmp	_myint
  1163  000A  291C               psect	text1
  1164                           	line	137
  1165                           	
  1166                           i1l66:	
  1167  011C                     	movf	(??_myint+1),w
  1168  011C  0821               	movwf	pclath
  1169  011D  008A               	swapf	(??_myint+0)^00h,w
  1170  011E  0E20               	movwf	status
  1171  011F  0083               	swapf	saved_w,f
  1172  0120  0EDE               	swapf	saved_w,w
  1173  0121  0E5E               	retfie
  1174  0122  0009               	opt stack 0
  1175                           GLOBAL	__end_of_myint
  1176                           	__end_of_myint:
  1177  0123                     	signat	_myint,89
  1178                           global	___latbits
  1179                           ___latbits	equ	0
  1180  0000                     	global	btemp
  1181                           	btemp set 05Eh
  1182  005E                     
  1183                           	DABS	1,94,2	;btemp
  1184                           	global	wtemp0
  1185                           	wtemp0 set btemp+0
  1186  005E                     	end


Data Sizes:
    Strings     0
    Constant    0
    Data        1
    BSS         1
    Persistent  0
    Stack       0

Auto Spaces:
    Space          Size  Autos    Used
    COMMON            0      0       0
    BANK0            62     15      17

Pointer List with Targets:

    None.

Critical Paths under _main in COMMON

    None.

Critical Paths under _myint in COMMON

    None.

Critical Paths under _main in BANK0

    None.

Critical Paths under _myint in BANK0

    None.

Call Graph Tables:

 ---------------------------------------------------------------------------------
 (Depth) Function   	        Calls       Base Space   Used Autos Params    Refs
 ---------------------------------------------------------------------------------
 (0) _main                                                13    13      0     325
                                              2 BANK0     13    13      0
 ---------------------------------------------------------------------------------
 Estimated maximum stack depth 0
 ---------------------------------------------------------------------------------
 (Depth) Function   	        Calls       Base Space   Used Autos Params    Refs
 ---------------------------------------------------------------------------------
 (1) _myint                                                2     2      0       0
                                              0 BANK0      2     2      0
 ---------------------------------------------------------------------------------
 Estimated maximum stack depth 1
 ---------------------------------------------------------------------------------

 Call Graph Graphs:

 _main (ROOT)

 _myint (ROOT)

 Address spaces:
Name               Size   Autos  Total    Cost      Usage
SFR1                 0      0       0       2        0.0%
BITSFR1              0      0       0       2        0.0%
BANK0               3E      F      11       4       27.4%
BITBANK0            3E      0       0       3        0.0%
SFR0                 0      0       0       1        0.0%
BITSFR0              0      0       0       1        0.0%
COMMON               0      0       0       1        0.0%
BITCOMMON            0      0       0       0        0.0%
CODE                 0      0       0       0        0.0%
DATA                 0      0      11       6        0.0%
ABS                  0      0      11       5        0.0%
NULL                 0      0       0       0        0.0%
STACK                0      0       0       2        0.0%
EEDATA              80      0       0       0        0.0%


Microchip Technology PIC Macro Assembler V2.00 build -1524193055 
Symbol Table                                                                                   Wed Apr 01 20:07:46 2020

             __CFG_FOSC$ 0005                       l31 003D               __CFG_WDTE$ 0000  
                     l40 008C                       l32 004F                       l41 008C  
                     l33 0052                       l50 00C0                       l42 0092  
                     l34 005E                       l51 0104                       l43 00AA  
                     l35 0056                       l60 011B                       l52 00C1  
                     l44 00A9                       l36 006C                       l61 011B  
                     l53 00CE                       l45 00BE                       l37 007C  
                     l54 00DF                       l46 00BC                       l38 0074  
                     l55 00ED                       l47 00BB                       l39 008B  
                     l56 00FE                       l48 00BD                       l49 0115  
                     l57 0114                       l58 0100                       l59 0102  
            __CFG_BOREN$ 0000              __CFG_MCLRE$ 0000                      l801 003C  
                    l811 0071                      l803 003E                      l821 00A6  
                    l813 0075                      l805 004F                      l831 00C3  
                    l823 00AA                      l815 0092                      l807 0052  
                    l841 00EC                      l833 00CD                      l825 00B0  
                    l817 0098                      l809 0057                      l843 00EE  
                    l835 00CF                      l827 00B6                      l819 009E  
                    l771 001B                      l763 0011                      l845 0103  
                    l837 00E0                      l829 00C1                      l781 0021  
                    l773 001C                      l765 0015                      l839 00E2  
                    l847 0104                      l791 002C                      l783 0022  
                    l775 001E                      l767 0017                      l849 0115  
                    l793 002D                      l785 0027                      l777 001F  
                    l769 001A                      l795 002E                      l787 0029  
                    l779 0020                      l797 002F                      l789 002B  
                    l887 010C                      l799 0032                      u200 00A6  
                    u201 00A5                      u210 00B6                      u211 00B5  
                    u220 00CC                      u140 003B                      u221 00CB  
                    u141 003A                      u230 00DF                      u150 004E  
                    u231 00DE                      u151 004D                      u240 00EB  
                    u160 006C                      u241 00EA                      u161 006B  
                    u250 00FE                      u170 008A                      u251 00FD  
                    u171 0089                      u260 011A                      u180 0091  
                    u261 0119                      u181 0090                      u165 0068  
                    u190 0098                      u191 0097                      u175 0086  
            __CFG_PWRTE$ 0001                     i1l66 011C            main@ErrorCode 002A  
                   _main 0011                     btemp 005E                     start 000B  
                  ?_main 0020                    _ANSEL 0091                    _PORTC 0007  
                  _TRISC 0087                    _wVref 0030                    _myint 011C  
                  main@i 0024                    pclath 000A                    status 0003  
                  wtemp0 005E          __initialization 000C             __end_of_main 011C  
                 ??_main 0022                   _ADRESH 001E                   ?_myint 0020  
                 saved_w 005E  __end_of__initialization 000F             __pidataBANK0 0123  
          __end_of_myint 0123                  ??_myint 0020               __pbssBANK0 002F  
             __pmaintext 0011               __pintentry 0004                _ANSELbits 0091  
                __ptext1 011C     end_of_initialization 000F                _PORTCbits 0007  
              _TRISCbits 0087                __CFG_CPD$ 0001      start_initialization 000C  
            __pdataBANK0 0030                ___latbits 0000            __pcstackBANK0 0020  
         __size_of_myint 0007        interrupt_function 0004                 _PIE1bits 008C  
               __CFG_CP$ 0001               _ADCON0bits 001F               _ADCON1bits 009F  
              main@i_250 002B                main@i_257 0026                main@i_258 0028  
           _wVoltageRead 002F            __size_of_main 010B               _INTCONbits 000B  
               intlevel1 0000              main@NB_Wait 002D  
